target datalayout = "e-m:e-p270:32:32-p271:32:32-p272:64:64-i64:64-i128:128-f80:128-n8:16:32:64-S128"
target triple = "x86_64-pc-linux-gnu"

; Function Attrs: nounwind uwtable
define dso_local zeroext i1 @i128_can_convert_from_double_signed(double noundef %0) #0 {
  %2 = alloca double, align 8
  store double %0, ptr %2, align 8
  %3 = load double, ptr %2, align 8
  %4 = call i1 @llvm.is.fpclass.f64(double %3, i32 504)
  br i1 %4, label %5, label %14

5:                                                ; preds = %1
  %6 = load double, ptr %2, align 8
  %7 = call double @ldexp(double noundef 1.000000e+00, i32 noundef 127) #7
  %8 = fneg double %7
  %9 = fcmp oge double %6, %8
  br i1 %9, label %10, label %14

10:                                               ; preds = %5
  %11 = load double, ptr %2, align 8
  %12 = call double @ldexp(double noundef 1.000000e+00, i32 noundef 127) #7
  %13 = fcmp olt double %11, %12
  br label %14

14:                                               ; preds = %10, %5, %1
  %15 = phi i1 [ false, %5 ], [ false, %1 ], [ %13, %10 ]
  ret i1 %15
}